Certificate:
    Data:
        Version: 3 (0x2)
        Serial Number: 0 (0x0)
        Signature Algorithm: sha256WithRSAEncryption
        Issuer: C=US, ST=California, O=M2Crypto, CN=Heikki Toivonen
        Validity
            Not Before: Nov 12 19:14:58 2025 GMT
            Not After : Nov 10 19:14:58 2035 GMT
        Subject: C=US, ST=California, O=M2Crypto, CN=Heikki Toivonen
        Subject Public Key Info:
            Public Key Algorithm: rsaEncryption
                RSA Public-Key: (2048 bit)
                Modulus:
                    00:c0:79:df:11:ad:1a:0b:1c:da:f5:35:8d:cd:68:
                    55:8a:cf:ec:b6:df:fd:3a:c2:08:59:3a:c0:61:29:
                    91:e6:69:66:6d:49:77:4d:3c:3f:a1:bf:6b:af:64:
                    f0:48:65:6c:ad:6c:81:31:b5:55:e3:51:8e:1f:19:
                    d6:d9:2d:8c:11:6c:3c:09:21:a3:10:cb:a1:b1:60:
                    05:53:32:2f:3b:26:48:ac:a8:21:3d:cb:15:10:50:
                    c0:18:eb:d5:7c:a9:36:2c:bb:f0:0e:ba:a1:6c:44:
                    4a:2f:9f:d6:00:2d:b5:16:9c:de:31:d9:aa:e9:90:
                    94:b8:b0:1f:44:72:44:43:b4:4c:9d:b3:a1:d9:53:
                    49:ef:c3:9e:2b:f1:aa:58:7a:ed:ba:cb:30:47:7e:
                    30:97:18:d9:38:36:ed:46:cc:d0:f1:bb:74:c9:f2:
                    7d:ee:1b:c1:6a:0c:03:3e:bb:8f:3b:c2:16:3a:8c:
                    31:7e:15:17:5e:f2:10:7d:f7:65:ab:d8:6e:be:4e:
                    6b:a2:5e:f6:6e:c1:a9:e4:4b:73:94:9d:28:bf:91:
                    6d:8f:45:c2:af:32:1d:8e:69:d9:1e:8d:94:5d:8b:
                    16:fb:5f:99:54:38:e5:94:13:73:b1:17:8b:2c:89:
                    d2:37:79:02:2e:4c:7a:87:92:e7:d4:60:66:26:b1:
                    3d:07
                Exponent: 65537 (0x10001)
        X509v3 extensions:
            X509v3 Basic Constraints: 
                CA:TRUE
            X509v3 Subject Key Identifier: 
                12:CA:AA:AB:A2:22:33:75:16:1F:9B:A0:F4:4B:28:FB:DD:D0:90:FA
    Signature Algorithm: sha256WithRSAEncryption
    Signature Value:
        68:a6:4d:24:b1:c1:68:6e:25:ed:29:06:0e:92:80:65:c4:08:
        98:fa:34:d8:65:df:88:ed:79:bd:ff:63:2c:f6:ab:18:5b:e1:
        0a:9e:d4:c6:37:2d:b6:0e:28:53:f4:1e:d7:69:0d:e1:21:34:
        53:31:3f:29:98:29:c7:b6:92:51:e7:95:34:5b:a9:f4:cd:6c:
        b5:1a:06:95:47:f2:b1:2c:b7:2c:de:61:89:8c:b6:96:85:20:
        c6:b5:6b:ee:57:52:3c:4a:9d:a0:68:56:d3:42:6e:ae:7e:13:
        98:aa:4d:75:ff:51:99:b1:02:1e:fb:45:e9:06:e8:7d:37:42:
        e2:0f:c5:15:bd:46:db:69:5b:8a:75:b1:00:36:d3:c0:bb:7d:
        9a:7a:47:35:93:88:01:16:32:31:a5:d2:fe:de:94:73:4b:0c:
        0d:dd:a9:a8:fb:56:fa:c9:8e:34:63:64:04:3f:b3:ee:b2:62:
        4d:83:df:fb:1f:1b:84:10:5e:86:1d:49:14:7d:7a:0b:58:ba:
        f1:13:30:87:5c:c2:4f:5a:3e:aa:a1:c1:62:67:98:66:5c:2c:
        92:e5:cc:0b:15:84:ad:95:1b:70:74:c9:b6:a6:20:4d:96:9a:
        de:37:f7:97:e2:2b:6d:7e:e0:17:be:ef:5d:3c:f3:62:36:ea:
        7b:3e:85:c7
-----BEGIN CERTIFICATE-----
MIIDSDCCAjCgAwIBAgIBADANBgkqhkiG9w0BAQsFADBPMQswCQYDVQQGEwJVUzET
MBEGA1UECAwKQ2FsaWZvcm5pYTERMA8GA1UECgwITTJDcnlwdG8xGDAWBgNVBAMM
D0hlaWtraSBUb2l2b25lbjAeFw0yNTExMTIxOTE0NThaFw0zNTExMTAxOTE0NTha
ME8xCzAJBgNVBAYTAlVTMRMwEQYDVQQIDApDYWxpZm9ybmlhMREwDwYDVQQKDAhN
MkNyeXB0bzEYMBYGA1UEAwwPSGVpa2tpIFRvaXZvbmVuMIIBIjANBgkqhkiG9w0B
AQEFAAOCAQ8AMIIBCgKCAQEAwHnfEa0aCxza9TWNzWhVis/stt/9OsIIWTrAYSmR
5mlmbUl3TTw/ob9rr2TwSGVsrWyBMbVV41GOHxnW2S2MEWw8CSGjEMuhsWAFUzIv
OyZIrKghPcsVEFDAGOvVfKk2LLvwDrqhbERKL5/WAC21FpzeMdmq6ZCUuLAfRHJE
Q7RMnbOh2VNJ78OeK/GqWHrtusswR34wlxjZODbtRszQ8bt0yfJ97hvBagwDPruP
O8IWOowxfhUXXvIQffdlq9huvk5rol72bsGp5EtzlJ0ov5Ftj0XCrzIdjmnZHo2U
XYsW+1+ZVDjllBNzsReLLInSN3kCLkx6h5Ln1GBmJrE9BwIDAQABoy8wLTAMBgNV
HRMEBTADAQH/MB0GA1UdDgQWBBQSyqqroiIzdRYfm6D0Syj73dCQ+jANBgkqhkiG
9w0BAQsFAAOCAQEAaKZNJLHBaG4l7SkGDpKAZcQImPo02GXfiO15vf9jLParGFvh
Cp7Uxjcttg4oU/Qe12kN4SE0UzE/KZgpx7aSUeeVNFup9M1stRoGlUfysSy3LN5h
iYy2loUgxrVr7ldSPEqdoGhW00Jurn4TmKpNdf9RmbECHvtF6QbofTdC4g/FFb1G
22lbinWxADbTwLt9mnpHNZOIARYyMaXS/t6Uc0sMDd2pqPtW+smONGNkBD+z7rJi
TYPf+x8bhBBehh1JFH16C1i68RMwh1zCT1o+qqHBYmeYZlwskuXMCxWErZUbcHTJ
tqYgTZaa3jf3l+IrbX7gF77vXTzzYjbqez6Fxw==
-----END CERTIFICATE-----
-----BEGIN RSA PRIVATE KEY-----
MIIEpAIBAAKCAQEAwHnfEa0aCxza9TWNzWhVis/stt/9OsIIWTrAYSmR5mlmbUl3
TTw/ob9rr2TwSGVsrWyBMbVV41GOHxnW2S2MEWw8CSGjEMuhsWAFUzIvOyZIrKgh
PcsVEFDAGOvVfKk2LLvwDrqhbERKL5/WAC21FpzeMdmq6ZCUuLAfRHJEQ7RMnbOh
2VNJ78OeK/GqWHrtusswR34wlxjZODbtRszQ8bt0yfJ97hvBagwDPruPO8IWOowx
fhUXXvIQffdlq9huvk5rol72bsGp5EtzlJ0ov5Ftj0XCrzIdjmnZHo2UXYsW+1+Z
VDjllBNzsReLLInSN3kCLkx6h5Ln1GBmJrE9BwIDAQABAoIBABfrLTGE+Y8MThjE
cnORCyGobBS1FMLIA6yUVKgzt8Sn2smATy84ak8/Op0TEJnBN4unnQ3LKI9f/lGB
bwW8bMMU2F2+zIT/oSop3Lo1gCa8FQeWZHx0L7vAJSxo+4s10Jx82xH21wIyzFCg
bsIalqiRjuUn/7QYZPrnMW4v5al6AlSBIBKTedIPP5e/6hEUVJwB+bLI+2ooV5y5
PrbCPD1nVoo8w6XCPTJ6DsKTgIGCg0ojaga3pqjvgKhfTiRaAxeteDbL1um/xgL1
D+pM8hk5IY+RVBzdNWhRlCmDNOq8ejv32QH+6bLt2NBTk+jbiMl6KadJ4c06mhwB
rNPuH1ECgYEA6hjlGjE+BJTjrES0MTRvUwFzT6n9SDRfXfp/IZVhWXqoz4v5xizk
fWQk+Akk6z3nqFtCn0AuOKp53Ja3voiJ7a0Si9KIynwbsvoJA9rY6qnpvjaKfYVC
nBJuSZkICQbWYkGHnOqOXMj0BOGiWi9lX+emtWPbI3Rfe6ldH6OX4VcCgYEA0nwQ
fEwoz2OXFnHgpoaaarAq0PFTbXiKtH7GLwiMx/DsKYBm6rvm5ZL+kye6fkKxLdD+
k31hrJYxpbEBiNYXLtIbrzpruyqwPYX1QAjo/dLqFalqF7XIpTkv0yHa8jpLFGf3
m9/ypFrrWFcmOQ8OVsaRiZsSPt94Mu9CWMg7w9ECgYEAiWr5uelkFX5tM6fU+vlj
zB8S2JXZ97O+s8UjMcylq8gEJmltwvaBXlYWGYAMqwbY4QxJTIB5YYw5ItNaoz81
cE7jjy6UXACEpgh+mEO0h/QcISuVGl/KnSF4mj156QqZeG4tNGDAFxljnSXyjuw5
nxW11875SZO7pTTjVHpM4tsCgYAXdvE3ih36kLWlMOjEZ7kLL7x2MpEEYS3FVWSu
lZtsJrWNIt1WScBB05NBwGoP7UtnOidHNfEPlmbOe98Z7BQFijK/5Blici3Xjfl7
PAMNWNfztkE3h3JoyOlF9j48Rrdb/QMjg2G/ZMtbu8ttDPqiPdy3pGvySmNR+k5B
K4FOIQKBgQDYf4uVsTnNne0rpOzjotcT2Y+ubLgKJwMoqrOKTKMsoZoeIlynjblf
RRKkoRULQBkrSHynNAJsP/9NFOzV4O/dHaSDphDT2yh9x1fKMlYC2pjLl4LXOmv1
cJUEUF/kjuKMhpD1i+/4k5ZhoJvyPtzHbGSI5fg2QIYsRlhZm5/3CA==
-----END RSA PRIVATE KEY-----
