Certificate:
    Data:
        Version: 3 (0x2)
        Serial Number: 5 (0x5)
        Signature Algorithm: sha256WithRSAEncryption
        Issuer: C=US, ST=California, O=M2Crypto, CN=Heikki Toivonen
        Validity
            Not Before: May  8 10:59:23 2026 GMT
            Not After : May  5 10:59:23 2036 GMT
        Subject: C=US, ST=California, O=M2Crypto, CN=xn--bcher-kva.example
        Subject Public Key Info:
            Public Key Algorithm: rsaEncryption
                RSA Public-Key: (2048 bit)
                Modulus:
                    00:f7:a7:5b:23:2a:3d:6e:55:0a:42:0c:10:e4:ad:
                    c6:77:cd:e9:cf:1d:f2:97:ca:80:7d:b8:af:13:8c:
                    0f:0e:29:40:4f:14:a8:84:41:4a:08:3d:27:6e:db:
                    9c:64:f2:67:b4:c9:e0:1c:e3:6c:29:7b:10:91:2f:
                    b0:01:60:11:62:21:e5:cc:55:b9:f3:60:44:32:18:
                    8b:51:ba:48:a1:0a:eb:16:70:2f:a9:9d:07:6e:2a:
                    cf:45:7d:03:c2:ba:87:bd:d8:da:f5:a8:2e:42:e6:
                    78:fe:8d:0d:73:66:3f:5e:35:c6:6e:45:d7:89:c1:
                    db:d7:6d:da:f0:72:b2:08:34:ce:77:77:8d:a0:c1:
                    12:9d:bb:5c:fd:73:9e:84:e8:92:15:93:cb:61:66:
                    9d:6a:4e:3d:e1:3e:61:47:d7:8d:3e:d8:d6:b9:36:
                    a4:8c:38:0a:74:da:8f:7e:82:5f:7a:73:78:ff:8b:
                    8b:de:8e:35:ba:fc:14:02:f7:46:50:d3:64:ac:10:
                    96:52:86:7e:d3:4a:32:46:f4:2c:92:97:78:83:34:
                    97:04:64:59:df:34:12:41:e4:af:15:36:4e:db:9e:
                    c2:9e:e6:6f:7f:42:26:f1:ed:19:c3:7e:6f:4c:84:
                    2c:4c:1f:8e:bc:e0:f2:64:fa:53:5a:c4:37:d5:fa:
                    68:7f
                Exponent: 65537 (0x10001)
        X509v3 extensions:
            X509v3 Basic Constraints:
                CA:FALSE
            X509v3 Subject Key Identifier:
                CD:89:71:A1:E9:98:B4:99:D4:4D:E5:DC:9B:E2:9F:DE:FE:C4:24:88
            X509v3 Subject Alternative Name:
                DNS:xn--bcher-kva.example
    Signature Algorithm: sha256WithRSAEncryption
    Signature Value:
        63:6a:c0:41:ab:33:2f:79:70:c6:1c:b6:69:01:0c:8a:73:4b:
        4e:34:03:82:d8:ea:eb:4d:2f:f8:f3:c1:cd:8f:f3:02:91:ec:
        4b:de:8d:3c:90:88:50:8f:48:4e:41:c2:ef:45:f4:f4:ba:e1:
        bc:91:ef:35:91:b5:ff:2f:e3:5a:11:46:79:a5:65:30:ef:52:
        14:e2:49:1b:62:72:12:9f:57:09:3c:81:d5:5d:45:41:bf:83:
        2c:2d:df:aa:78:b8:39:19:6d:5e:64:c6:5b:79:b2:4f:0b:d8:
        03:8a:b7:01:12:37:c5:a6:ad:8d:45:6a:85:c8:0a:3e:b3:71:
        65:66:67:07:fb:0f:17:2d:87:51:ca:0c:a8:71:64:23:71:99:
        2c:f1:28:23:58:67:c9:b8:8e:d5:11:94:a6:5f:bb:b9:f2:ba:
        0f:a6:b1:0a:67:60:fe:d6:95:7d:2c:6e:e9:82:12:0c:1b:48:
        fd:c3:ba:8c:5a:ee:3f:1f:62:84:dc:78:9f:cb:95:c2:ac:a7:
        a9:7a:6c:59:5b:90:05:e5:24:23:fc:15:20:00:45:71:64:4d:
        82:03:eb:22:08:5a:ac:06:c4:a8:08:0c:af:c0:e1:8d:0f:3f:
        32:b7:37:ee:4f:87:40:0d:8c:18:90:4a:2a:b8:e4:88:70:c8:
        c5:4c:24:af
-----BEGIN CERTIFICATE-----
MIIDbTCCAlWgAwIBAgIBBTANBgkqhkiG9w0BAQsFADBPMQswCQYDVQQGEwJVUzET
MBEGA1UECAwKQ2FsaWZvcm5pYTERMA8GA1UECgwITTJDcnlwdG8xGDAWBgNVBAMM
D0hlaWtraSBUb2l2b25lbjAeFw0yNjA1MDgxMDU5MjNaFw0zNjA1MDUxMDU5MjNa
MFUxCzAJBgNVBAYTAlVTMRMwEQYDVQQIDApDYWxpZm9ybmlhMREwDwYDVQQKDAhN
MkNyeXB0bzEeMBwGA1UEAwwVeG4tLWJjaGVyLWt2YS5leGFtcGxlMIIBIjANBgkq
hkiG9w0BAQEFAAOCAQ8AMIIBCgKCAQEA96dbIyo9blUKQgwQ5K3Gd83pzx3yl8qA
fbivE4wPDilATxSohEFKCD0nbtucZPJntMngHONsKXsQkS+wAWARYiHlzFW582BE
MhiLUbpIoQrrFnAvqZ0HbirPRX0DwrqHvdja9aguQuZ4/o0Nc2Y/XjXGbkXXicHb
123a8HKyCDTOd3eNoMESnbtc/XOehOiSFZPLYWadak494T5hR9eNPtjWuTakjDgK
dNqPfoJfenN4/4uL3o41uvwUAvdGUNNkrBCWUoZ+00oyRvQskpd4gzSXBGRZ3zQS
QeSvFTZO257CnuZvf0Im8e0Zw35vTIQsTB+OvODyZPpTWsQ31fpofwIDAQABo04w
TDAJBgNVHRMEAjAAMB0GA1UdDgQWBBTNiXGh6Zi0mdRN5dyb4p/e/sQkiDAgBgNV
HREEGTAXghV4bi0tYmNoZXIta3ZhLmV4YW1wbGUwDQYJKoZIhvcNAQELBQADggEB
AGNqwEGrMy95cMYctmkBDIpzS040A4LY6utNL/jzwc2P8wKR7EvejTyQiFCPSE5B
wu9F9PS64byR7zWRtf8v41oRRnmlZTDvUhTiSRtichKfVwk8gdVdRUG/gywt36p4
uDkZbV5kxlt5sk8L2AOKtwESN8WmrY1FaoXICj6zcWVmZwf7Dxcth1HKDKhxZCNx
mSzxKCNYZ8m4jtURlKZfu7nyug+msQpnYP7WlX0sbumCEgwbSP3Duoxa7j8fYoTc
eJ/LlcKsp6l6bFlbkAXlJCP8FSAARXFkTYID6yIIWqwGxKgIDK/A4Y0PPzK3N+5P
h0ANjBiQSiq45IhwyMVMJK8=
-----END CERTIFICATE-----
-----BEGIN RSA PRIVATE KEY-----
MIIEowIBAAKCAQEA96dbIyo9blUKQgwQ5K3Gd83pzx3yl8qAfbivE4wPDilATxSo
hEFKCD0nbtucZPJntMngHONsKXsQkS+wAWARYiHlzFW582BEMhiLUbpIoQrrFnAv
qZ0HbirPRX0DwrqHvdja9aguQuZ4/o0Nc2Y/XjXGbkXXicHb123a8HKyCDTOd3eN
oMESnbtc/XOehOiSFZPLYWadak494T5hR9eNPtjWuTakjDgKdNqPfoJfenN4/4uL
3o41uvwUAvdGUNNkrBCWUoZ+00oyRvQskpd4gzSXBGRZ3zQSQeSvFTZO257CnuZv
f0Im8e0Zw35vTIQsTB+OvODyZPpTWsQ31fpofwIDAQABAoIBAA5gkYfpwds6kKKO
ShochIhxVIDeVOEUXn/t+CwDAN9qQajVotrat3jho/0UPsYVfzPIVycWL4dQ9QCY
wM0I+LlhDRLfFIaD24b/qcblhlCNw7bFGInuQH+Czg7+Ak6Maaj51+xUW9XXxMUd
BzTghg6VbJ77laxnrA2bpmQ4ebbEIiOcpqVmtE0+Ti0kkZxgJ9jPaF3nSSC3q8ew
7HoE1IwLNpcfrkFfjyDiP8V5D3ufh5G4Z3c7B02LE5L9Hd58y9fwzrtO1uFfXTLW
3E56Sw6jCcvCZFft1i6e7+5TdXs3qhZdFa808XCJcsE2N+XlXuGAw/XhZ4IrHBJw
HTSBTGECgYEA/rQj1ZvB4J4ZsjHySyMlMbyfjid074ELhRAKnt08F3ZUjO1pIW1N
fZpBXZ3Qmse0ts0xdEQSlchJT5HSZvsJzIIhT5/yOTHrq0qc/72ZKNPgX55AbbX8
Hmeb4ph/mJ9vNaCW1Ib6vbHO22ymsGE97iKfPgHMrNEeYGXpEFRL/EkCgYEA+OoH
zZeiRWzc33MWHHU/NkvQ8nNt9D8+M+dE+Ssi2It7dB5d3AvoxFt4XDJeRQiUG98w
QBbWsaDO88MNOETJZIdIliHDoOaFyKSYi298b6Z8VZ+5bLM7ZimyLRHFNrSYVs3U
yHrzWaFaiM14K44zN0j4TLHtG5M8BFi9kpV5bocCgYEAivZlhqmQQaiAhIRTmUL3
jAdJVhmY5wMU8egqozo5CuP4hVsSPLaRzLFYcGcl5QyIQCP7k1+AdE/uD4eTr7PP
SNDGs9akJShjV/VBaxZadbgDdqe0pybfAwesORjSpMZ3ul5/bDyomM5l+blxyFGF
pGMnVoFM1gzR8e4oFkynmGECgYAf2cJ52kdXXuC8bvuLVK1sAzOPcpnFQTpyZct7
nrtsvhxj9WbJO3Tje1jhY0iQyNI65spDyShbvln88x6D7rledbkiDNv9gMHptLYY
UYG4v7L1OeT+NckJ/5ffEIENyPodUWVC6gitlWoCS1hvKlj/YAT1u2a9uo9Zdwl6
8kmBjQKBgGXDojUwKpZtat1LDrUjeVOzi4jNtTZQOWsWq/aLIeEqBj4NfeuggLsl
zvQuawKFCn9Zf9UB7L9fp5An7h7DQ0GqlXNFUpfp2VWLhFB6t1elDTKpu2gaHVen
GLaYHB2TdUDNbCnLYzyqVc73yB6kIuIT69r1c0yYklggJoNdImU3
-----END RSA PRIVATE KEY-----
