Certificate:
    Data:
        Version: 3 (0x2)
        Serial Number: 4 (0x4)
        Signature Algorithm: sha256WithRSAEncryption
        Issuer: C=US, ST=California, O=M2Crypto, CN=Heikki Toivonen
        Validity
            Not Before: Nov 12 19:14:58 2025 GMT
            Not After : Nov 10 19:14:58 2035 GMT
        Subject: C=US, ST=California, O=M2Crypto, CN=Recipient/emailAddress=recipient@example.com
        Subject Public Key Info:
            Public Key Algorithm: rsaEncryption
                RSA Public-Key: (2048 bit)
                Modulus:
                    00:89:37:a7:12:25:47:e7:59:4e:37:97:58:1c:2b:
                    3d:d8:bb:72:6d:be:7e:b8:bd:7c:28:a8:3b:27:1f:
                    22:53:ac:61:84:d7:ef:16:0c:4a:e2:17:05:31:6f:
                    a6:07:08:31:41:bc:20:09:f2:f3:58:e8:e4:a5:79:
                    4f:4c:26:cf:40:20:96:fe:a4:e0:b4:b8:e0:9d:02:
                    26:1d:61:ea:d3:b7:af:bf:12:88:16:a5:39:67:91:
                    7a:6e:11:12:85:ff:40:3d:a5:c6:93:42:0b:aa:f6:
                    38:db:9f:d7:fc:1b:3f:96:e3:b6:84:92:47:34:71:
                    f7:bf:71:49:70:0f:e9:d4:7c:02:d5:6d:5d:df:86:
                    b0:d6:84:f9:87:e4:94:4c:68:34:82:1b:89:2c:a3:
                    24:9d:7a:8f:bc:23:a3:41:5f:78:25:62:ce:8a:02:
                    ce:6e:92:5e:f4:b5:1d:3d:ab:2b:bb:67:49:b0:fd:
                    1b:82:ed:cc:f8:fe:36:09:24:44:7d:dd:92:5c:e6:
                    a9:6d:b1:d0:ab:c1:d6:ea:b5:7b:98:46:58:ea:2d:
                    3c:5d:65:54:11:ae:71:fb:93:bb:d5:a1:b3:20:a5:
                    d7:8e:f4:69:c0:b7:23:5d:99:71:12:4a:55:21:c5:
                    5e:e6:a4:9a:f9:53:c4:0f:32:74:7b:ec:6e:03:3e:
                    e4:6f
                Exponent: 65537 (0x10001)
        X509v3 extensions:
            X509v3 Basic Constraints: 
                CA:FALSE
            X509v3 Subject Key Identifier: 
                90:A4:08:E7:EF:BA:FB:D1:5F:7A:2A:62:5E:59:01:A1:2F:2E:04:68
    Signature Algorithm: sha256WithRSAEncryption
    Signature Value:
        17:8a:f6:41:97:46:33:2a:95:20:9a:01:ca:2b:4a:96:1b:01:
        cd:96:44:9a:9c:d3:fa:99:e7:86:36:f4:3d:d1:27:8b:f3:79:
        c4:9e:b7:e6:9d:e4:b7:88:c6:13:b5:82:37:e0:d4:ba:63:a0:
        fa:f3:06:0e:bc:be:39:a1:bb:38:2b:ec:a9:ca:39:2c:2e:da:
        6d:83:55:8a:5f:09:85:8f:6e:78:63:5b:46:38:f9:ba:c1:a9:
        e2:38:a6:60:dd:db:87:e0:65:96:35:a4:11:4f:98:41:10:d4:
        fa:0b:cd:36:0a:35:47:5a:08:84:14:99:ba:ad:18:fb:f0:e9:
        88:b4:5a:69:57:46:9a:c8:e4:ba:aa:a8:c8:52:51:a5:06:df:
        2e:52:5e:76:b7:71:0e:c5:36:84:69:82:d9:c1:cd:e8:60:31:
        3e:79:5b:d7:d7:85:8f:97:d3:89:36:99:85:8c:67:87:26:7c:
        e2:a7:80:55:8c:9a:c9:21:88:59:ea:f3:45:19:bd:3f:b5:10:
        e8:3f:c1:95:9b:8d:55:c2:4a:b6:1f:33:da:bc:ae:98:4a:d5:
        84:95:90:25:d1:e9:6e:d1:ce:60:0f:f5:eb:f4:a4:c0:2c:f9:
        c5:3d:ce:ff:ca:e8:f9:a7:8a:7e:d0:1b:b4:99:55:0e:8b:a6:
        14:56:da:39
-----BEGIN CERTIFICATE-----
MIIDZTCCAk2gAwIBAgIBBDANBgkqhkiG9w0BAQsFADBPMQswCQYDVQQGEwJVUzET
MBEGA1UECAwKQ2FsaWZvcm5pYTERMA8GA1UECgwITTJDcnlwdG8xGDAWBgNVBAMM
D0hlaWtraSBUb2l2b25lbjAeFw0yNTExMTIxOTE0NThaFw0zNTExMTAxOTE0NTha
MG8xCzAJBgNVBAYTAlVTMRMwEQYDVQQIDApDYWxpZm9ybmlhMREwDwYDVQQKDAhN
MkNyeXB0bzESMBAGA1UEAwwJUmVjaXBpZW50MSQwIgYJKoZIhvcNAQkBFhVyZWNp
cGllbnRAZXhhbXBsZS5jb20wggEiMA0GCSqGSIb3DQEBAQUAA4IBDwAwggEKAoIB
AQCJN6cSJUfnWU43l1gcKz3Yu3Jtvn64vXwoqDsnHyJTrGGE1+8WDEriFwUxb6YH
CDFBvCAJ8vNY6OSleU9MJs9AIJb+pOC0uOCdAiYdYerTt6+/EogWpTlnkXpuERKF
/0A9pcaTQguq9jjbn9f8Gz+W47aEkkc0cfe/cUlwD+nUfALVbV3fhrDWhPmH5JRM
aDSCG4ksoySdeo+8I6NBX3glYs6KAs5ukl70tR09qyu7Z0mw/RuC7cz4/jYJJER9
3ZJc5qltsdCrwdbqtXuYRljqLTxdZVQRrnH7k7vVobMgpdeO9GnAtyNdmXESSlUh
xV7mpJr5U8QPMnR77G4DPuRvAgMBAAGjLDAqMAkGA1UdEwQCMAAwHQYDVR0OBBYE
FJCkCOfvuvvRX3oqYl5ZAaEvLgRoMA0GCSqGSIb3DQEBCwUAA4IBAQAXivZBl0Yz
KpUgmgHKK0qWGwHNlkSanNP6meeGNvQ90SeL83nEnrfmneS3iMYTtYI34NS6Y6D6
8wYOvL45obs4K+ypyjksLtptg1WKXwmFj254Y1tGOPm6waniOKZg3duH4GWWNaQR
T5hBENT6C802CjVHWgiEFJm6rRj78OmItFppV0aayOS6qqjIUlGlBt8uUl52t3EO
xTaEaYLZwc3oYDE+eVvX14WPl9OJNpmFjGeHJnzip4BVjJrJIYhZ6vNFGb0/tRDo
P8GVm41Vwkq2HzPavK6YStWElZAl0elu0c5gD/Xr9KTALPnFPc7/yuj5p4p+0Bu0
mVUOi6YUVto5
-----END CERTIFICATE-----
-----BEGIN RSA PRIVATE KEY-----
MIIEowIBAAKCAQEAiTenEiVH51lON5dYHCs92Ltybb5+uL18KKg7Jx8iU6xhhNfv
FgxK4hcFMW+mBwgxQbwgCfLzWOjkpXlPTCbPQCCW/qTgtLjgnQImHWHq07evvxKI
FqU5Z5F6bhEShf9APaXGk0ILqvY425/X/Bs/luO2hJJHNHH3v3FJcA/p1HwC1W1d
34aw1oT5h+SUTGg0ghuJLKMknXqPvCOjQV94JWLOigLObpJe9LUdPasru2dJsP0b
gu3M+P42CSREfd2SXOapbbHQq8HW6rV7mEZY6i08XWVUEa5x+5O71aGzIKXXjvRp
wLcjXZlxEkpVIcVe5qSa+VPEDzJ0e+xuAz7kbwIDAQABAoIBABM+FTVTuhIk8XWV
STtmCv3GR6VBNhclJ3CyKt1xHci7H0/YUkR2w9eR394PaKqKyRGNVrbedabNvibA
bNDijmTRTSt3prVhScpq3zp2nU5Eb6ZtbF00nWi7O36M8VqOMY2TnlXPSMCYV9/g
uhK2JYQ8+b78nnSp2NLliaVn7eQorVHUAsIvkNxeBnT87HDx83OJPjEqqaiMsX1i
awKtqBF+ZVeINTc+mF0q0Nv9pbxpFl6f88HqcNoAuhblz3qqlKcozvu0cnDHmjXL
uqZcb3fTI+YZLrHntnpKe282lfRLIgQfhudFkFc+zvnOgb7krv5r2p2cOsczbtdX
cxjltmECgYEAu/bwVhk57uC0V2BDgW4HFHq6sl464tqCCgmMDcZy/AZ5twkS57mp
mPyECqe9YI2SmNcKah59QuW4TOsecAMJGGnC0CvCo4oZMjLCIM1pIuaasMMfJtKk
HQEa6Z56GTWEuL8Vmvzfd3lczabPICnDRwUIHCqNUsiqZXi9yDJC848CgYEAuuJo
H3Wtyeoln5sQIgoPDb4SpOgmMKcevO5/HckCm9C8o9oyU/8bHjFC4pG8jcybv2nd
dPcFLee4R7HoLpOz5CdTwUm/3+zqFrQUmdbhj6TD9B8OUdE2FMz8cWaFdBhOuVuE
+ZyDKB2V+gRyWPzmD3566lCDcNTu+ywQplX/ESECgYAbx7VhpDzRt1gwCcQwXuig
+Dqbnh2p5Y2Omjae2pOn9/UJPkgTA3ezaq7BPGVa3dGq0S1y3aq5tmX0yFMpTumL
OCZYyf7sWL68ko/qdTFyvQ5jzZLPFBa5Sq6FlKyLCUPiYit5SqJkcAVtR5gZMtLv
riiysP9OGuZENQInknYetQKBgGPMBZhPKjf57o91qb7TqkhHaQNg6QvwIoz3uy/3
qIn2hNXm7htGzn9oBPSiqJL8YWttKBKO2tgxtomqqnc87sJ2cdZ1AJ6ekD8BeULR
qfAgJ3gUoXv1gbDH6kLQYZGmbVu0UKVO/AcPDYjOmRWGL4C0pQS9bANz4g6E8Hsy
zxuhAoGBAIwFjdxZBNC7oSWw5qF2Vo4e9CTVH+6wYdUazx0lWSnZPNcaarwq15d8
ThOU3GGfZCQgH77N6RQ6BoJxOchqx4VKxp581CM26xfCWh9JAsJpAfscCTrYEDeN
OO67NCeeOb+65DeVpCVCaJErEw4MHMfz1JGiGenZcO2C4I+cWZ6p
-----END RSA PRIVATE KEY-----
