Certificate:
    Data:
        Version: 3 (0x2)
        Serial Number: 1 (0x1)
        Signature Algorithm: sha256WithRSAEncryption
        Issuer: C=US, ST=California, O=M2Crypto, CN=Heikki Toivonen
        Validity
            Not Before: Nov 12 19:14:58 2025 GMT
            Not After : Nov 10 19:14:58 2035 GMT
        Subject: C=US, ST=California, O=M2Crypto, CN=localhost
        Subject Public Key Info:
            Public Key Algorithm: rsaEncryption
                RSA Public-Key: (2048 bit)
                Modulus:
                    00:db:e4:17:d7:c8:6e:b4:3b:ae:62:17:58:55:d3:
                    45:d1:e3:bc:1f:e5:f6:3e:da:76:76:c6:e6:c6:8b:
                    2c:12:93:7f:28:3d:b6:95:ab:d8:8c:67:14:c6:5a:
                    b8:f0:72:2a:aa:0c:9b:31:11:a1:b4:3d:f3:a3:55:
                    1e:f9:af:4b:cc:55:c0:f4:b7:1a:38:d4:04:e9:15:
                    40:12:0f:b0:a3:15:e5:52:c3:70:e3:7b:8a:1f:5d:
                    71:2e:ce:3d:8f:ab:62:01:d0:ba:a4:41:9c:97:5b:
                    13:ae:55:42:ef:2e:44:c5:f2:b5:a9:01:72:6b:66:
                    df:56:d1:4d:f6:b8:0f:7c:30:a5:e6:d0:9e:25:3b:
                    3f:f5:95:78:fe:b8:ff:ce:95:9c:38:a4:a2:f1:07:
                    5f:c2:11:29:63:a3:74:9a:3f:dd:67:a0:af:bf:e4:
                    90:ac:2a:69:04:88:3b:2a:40:60:01:0f:a8:98:46:
                    84:9e:61:4e:d2:79:e3:c8:29:03:27:23:e9:e8:11:
                    55:91:f7:90:49:9b:68:8b:48:f5:0c:90:03:e0:b6:
                    0a:1a:f1:a1:00:55:63:aa:3e:50:aa:52:a6:71:7c:
                    b7:54:25:dd:68:bb:7a:c9:f3:81:51:0e:5a:b1:80:
                    3e:d8:9b:a9:51:18:9b:a7:60:2f:89:9f:8d:64:b3:
                    a1:37
                Exponent: 65537 (0x10001)
        X509v3 extensions:
            X509v3 Basic Constraints: 
                CA:FALSE
            X509v3 Subject Key Identifier: 
                DE:F8:8A:DA:A4:68:7E:AD:18:E8:04:4A:BC:6B:BF:9F:61:46:94:27
    Signature Algorithm: sha256WithRSAEncryption
    Signature Value:
        1a:44:54:90:9b:a2:13:05:53:54:95:ff:8f:ab:f8:f2:e4:5c:
        7c:8c:9d:9d:92:be:94:fa:87:7e:f8:2c:bf:91:e0:5d:63:a7:
        54:1f:d8:62:06:d2:ab:31:93:3b:a3:90:5b:cc:86:a9:3e:41:
        9e:d2:57:e4:61:0a:61:a4:fc:c9:92:61:f5:d0:88:dd:16:ff:
        bf:12:0a:7e:c5:c1:ac:7d:e5:33:f3:15:60:6f:3d:ad:7d:b3:
        ca:54:61:ac:fa:87:d4:d5:1e:89:87:46:e4:06:0f:1b:02:e1:
        aa:20:80:03:23:70:3a:47:8b:00:e1:de:b4:f5:b8:04:8b:7a:
        d7:f4:60:a5:b8:bc:35:4e:e1:c0:0a:ca:e7:fd:6c:14:34:de:
        87:67:d8:0c:9d:bc:23:2b:0b:c7:24:81:0d:ad:9d:df:7c:39:
        c8:4f:70:58:45:80:79:9a:9c:43:11:ed:6a:c5:fc:30:90:a1:
        62:4e:a1:ed:f5:fa:5e:18:96:33:1e:44:b8:51:d8:a7:57:73:
        ef:fe:af:04:68:19:9a:0d:03:40:b5:bc:1c:08:7d:00:29:cf:
        ce:b1:ad:9c:04:e0:f9:cf:80:43:51:4b:20:94:4d:6e:00:89:
        0a:ae:a9:eb:94:cc:d6:5b:60:86:5b:10:a0:69:b8:5f:e7:9f:
        59:d5:2a:c6
-----BEGIN CERTIFICATE-----
MIIDPzCCAiegAwIBAgIBATANBgkqhkiG9w0BAQsFADBPMQswCQYDVQQGEwJVUzET
MBEGA1UECAwKQ2FsaWZvcm5pYTERMA8GA1UECgwITTJDcnlwdG8xGDAWBgNVBAMM
D0hlaWtraSBUb2l2b25lbjAeFw0yNTExMTIxOTE0NThaFw0zNTExMTAxOTE0NTha
MEkxCzAJBgNVBAYTAlVTMRMwEQYDVQQIDApDYWxpZm9ybmlhMREwDwYDVQQKDAhN
MkNyeXB0bzESMBAGA1UEAwwJbG9jYWxob3N0MIIBIjANBgkqhkiG9w0BAQEFAAOC
AQ8AMIIBCgKCAQEA2+QX18hutDuuYhdYVdNF0eO8H+X2Ptp2dsbmxossEpN/KD22
lavYjGcUxlq48HIqqgybMRGhtD3zo1Ue+a9LzFXA9LcaONQE6RVAEg+woxXlUsNw
43uKH11xLs49j6tiAdC6pEGcl1sTrlVC7y5ExfK1qQFya2bfVtFN9rgPfDCl5tCe
JTs/9ZV4/rj/zpWcOKSi8QdfwhEpY6N0mj/dZ6Cvv+SQrCppBIg7KkBgAQ+omEaE
nmFO0nnjyCkDJyPp6BFVkfeQSZtoi0j1DJAD4LYKGvGhAFVjqj5QqlKmcXy3VCXd
aLt6yfOBUQ5asYA+2JupURibp2AviZ+NZLOhNwIDAQABoywwKjAJBgNVHRMEAjAA
MB0GA1UdDgQWBBTe+IrapGh+rRjoBEq8a7+fYUaUJzANBgkqhkiG9w0BAQsFAAOC
AQEAGkRUkJuiEwVTVJX/j6v48uRcfIydnZK+lPqHfvgsv5HgXWOnVB/YYgbSqzGT
O6OQW8yGqT5BntJX5GEKYaT8yZJh9dCI3Rb/vxIKfsXBrH3lM/MVYG89rX2zylRh
rPqH1NUeiYdG5AYPGwLhqiCAAyNwOkeLAOHetPW4BIt61/Rgpbi8NU7hwArK5/1s
FDTeh2fYDJ28IysLxySBDa2d33w5yE9wWEWAeZqcQxHtasX8MJChYk6h7fX6XhiW
Mx5EuFHYp1dz7/6vBGgZmg0DQLW8HAh9ACnPzrGtnATg+c+AQ1FLIJRNbgCJCq6p
65TM1ltghlsQoGm4X+efWdUqxg==
-----END CERTIFICATE-----
-----BEGIN RSA PRIVATE KEY-----
MIIEpAIBAAKCAQEA2+QX18hutDuuYhdYVdNF0eO8H+X2Ptp2dsbmxossEpN/KD22
lavYjGcUxlq48HIqqgybMRGhtD3zo1Ue+a9LzFXA9LcaONQE6RVAEg+woxXlUsNw
43uKH11xLs49j6tiAdC6pEGcl1sTrlVC7y5ExfK1qQFya2bfVtFN9rgPfDCl5tCe
JTs/9ZV4/rj/zpWcOKSi8QdfwhEpY6N0mj/dZ6Cvv+SQrCppBIg7KkBgAQ+omEaE
nmFO0nnjyCkDJyPp6BFVkfeQSZtoi0j1DJAD4LYKGvGhAFVjqj5QqlKmcXy3VCXd
aLt6yfOBUQ5asYA+2JupURibp2AviZ+NZLOhNwIDAQABAoIBAAa6KrSSUDi5XrNn
jW9KwGcUdYvwSCFSI6+slCDc3yNOWeSMRsq7cCuTd8I9wkyw4XdEXXcZ1/2gq5SC
pSj0YPhGY1nZRDca3W+YE9a5nijPIa3vhsOe4vHktPK+oomDr8LodN1TmIvU4HxD
5YFVxAreSwp5nduFUS3hx2XV6btd3xZtWpZ6mRGf2mMSldIbP55UZRH9XUCOI6Kh
u/RMOY2lfF+6D/mSSs6s/LAjvhMwPQ1Hg9uSy0h/AKPj66bNggU1snXEgWUSGXXb
HNtft71AZ++nfwMjkoC87OiINtvuw4o3E2uovbEdGTjRp4MHa1wMTl/IfCV3eUDK
n0axLkkCgYEA/95J9VUQkjif9CvSqeJxwrmrdZLgFF8Xugg6/mCKD2bJpkJxcmob
HU5mVgm33fJ3ruDe4BxczgqagwMidNSNDfLBoqv2WWL9chH/ymaws/eePov/a0mC
xCpa7IeesrjGgDcPpWTfnNVMifAS/zSOIsmmJnegypg7oJyrEFYVJYUCgYEA3AEQ
bNMUZGvDmBz1SbRVriNsrWHtrfdqyozmqc3suflNRFLgUsgXKeFQlGqpKrtu9ZCE
eyDE77LEzZE+SIQ8nIl1BhZFwiCFYVkqLURg5MpNpwiyy4fC9ssqTJV46d8QbN6z
L13aau8Pnyl03gSt4OHuLe4rmabgSOw0cqzB2osCgYEApvlZKlCoz8NEHwO6JkMw
GfMwgTmoIaMsyKo2VWqKriJV1bnmbtPvfeB7yAnvg1eH4we8amQX7B3fVz/kbHmI
02FoG9A8o3iGDLrSQjNhfRBKpGaX+FuwinNZgqG+XsNWRrWn8Dcz9hT8LcgNnZ2e
Y/VUCCZpN8zAnL+goriKdEECgYANHLsf4Uy713hm3oL4C5l3sYDOrKF/1tk0jUVK
JY3QX71tLwtTo71Nr7IfxmOiul0Yoa5jsEZMivkTz25I4CjEo6Sn4jfyJAIPFUNg
Q00LFcufAvO1EbhbASzaN6ZnOfY+pt9DGXLlIK5rrArdGKZMWurZLfLHS5zee8V8
eDNtlQKBgQCUd1peLvPtE2fqFNyU+KTnlT3gxf/Gqw0GuQxPAHoHYWHdUmxGfOYl
XMLYu+t1lfUCw9humUacDCxRzYFJ6KdGtecY6aSW9UeFDT1V50D6t+Uadc3yj+7d
0Ddlr+zNTTQlu/lvDqvLe/EFZD/k9IdbNADm5HJ+v+xzuCyqBGayGw==
-----END RSA PRIVATE KEY-----
