Certificate:
    Data:
        Version: 3 (0x2)
        Serial Number: 3 (0x3)
        Signature Algorithm: sha256WithRSAEncryption
        Issuer: C=US, ST=California, O=M2Crypto, CN=Heikki Toivonen
        Validity
            Not Before: Nov 12 19:14:58 2025 GMT
            Not After : Nov 10 19:14:58 2035 GMT
        Subject: C=US, ST=California, O=M2Crypto, CN=Signer/emailAddress=signer@example.com
        Subject Public Key Info:
            Public Key Algorithm: rsaEncryption
                RSA Public-Key: (2048 bit)
                Modulus:
                    00:e4:5e:b6:ca:89:8a:1c:5c:d6:50:5d:c7:28:a1:
                    26:7f:e4:93:bd:32:07:8e:3d:d9:90:09:d7:8c:58:
                    15:8a:fa:e2:e3:b4:03:16:6e:cd:7a:67:31:12:52:
                    62:5c:8d:83:16:69:5d:0a:db:52:84:99:9c:00:30:
                    7d:60:9f:81:f4:8f:a0:4e:77:ec:43:dc:31:43:41:
                    50:04:18:6b:3f:84:44:c4:7d:b2:5d:25:a0:df:6f:
                    32:87:e7:39:0e:27:d1:3b:63:1f:c9:09:df:4d:da:
                    14:38:cd:6e:0d:95:26:e3:1c:e0:84:c9:7b:00:8e:
                    b3:0c:15:2f:3c:d5:01:69:1a:3a:08:2f:06:3a:14:
                    b7:4e:5b:a5:64:65:df:12:5c:1b:aa:36:f9:c5:9d:
                    53:02:53:2d:2e:99:28:25:5e:10:48:de:a2:c6:5e:
                    08:3b:d7:99:b4:f9:9a:40:8f:b8:65:34:2c:c8:fc:
                    67:09:63:b2:1c:d5:5f:a8:ec:b0:e5:5c:d5:a3:9f:
                    96:6d:4f:cf:0d:05:a4:94:72:f3:7a:e6:3c:c4:8c:
                    25:9a:8f:ad:70:cf:e0:b2:3f:01:d4:4f:99:84:5e:
                    c7:ce:e0:ce:0f:4b:34:4f:e0:63:5d:80:19:0a:2b:
                    bf:19:28:be:85:47:87:0c:83:96:45:69:9b:da:15:
                    bb:6b
                Exponent: 65537 (0x10001)
        X509v3 extensions:
            X509v3 Basic Constraints: 
                CA:FALSE
            X509v3 Subject Key Identifier: 
                A4:08:5E:F6:34:BB:B2:E1:A5:39:C8:8C:C5:CB:D6:59:81:CF:09:77
    Signature Algorithm: sha256WithRSAEncryption
    Signature Value:
        57:c9:93:f0:eb:be:56:da:9b:a5:b7:d3:0f:e4:fb:77:45:0f:
        46:30:ee:07:ac:eb:f3:5c:2c:15:dd:2d:3b:2c:ec:9c:de:1e:
        7a:c1:8a:0d:cd:f2:1e:cd:47:42:25:e5:7b:6a:96:95:e5:9c:
        f7:f3:7d:f3:d7:69:52:30:67:5f:08:bf:26:6a:22:ec:58:26:
        b6:5d:82:33:d6:3a:03:ce:9d:62:c3:08:fc:50:40:56:a3:c8:
        f9:b5:84:76:19:d5:af:8b:a6:ec:b7:a9:23:b2:63:13:b7:55:
        48:01:e5:dd:93:52:90:d3:75:c4:2d:3e:09:68:08:8b:97:0a:
        8d:a8:9b:66:f3:f9:66:f5:7c:90:83:6f:bc:1c:07:18:00:8d:
        dd:75:cb:05:74:11:12:c8:1a:12:25:01:7a:57:19:9f:ed:c2:
        15:3d:5f:39:59:cf:43:8c:d0:5f:a7:3a:5e:a2:92:b7:e1:ae:
        45:1b:6f:c4:bd:1e:cc:10:36:d6:c5:be:8d:ea:c5:07:c2:45:
        a1:03:ed:8a:92:22:10:c2:95:b7:50:e8:2b:49:83:7c:84:bc:
        7c:c2:6c:71:df:a3:1d:cd:0b:7f:d7:73:94:0a:12:a9:f9:ba:
        f1:b9:c4:9f:b1:1d:9d:11:ab:82:73:50:cd:d1:1d:25:cf:70:
        91:67:d1:76
-----BEGIN CERTIFICATE-----
MIIDXzCCAkegAwIBAgIBAzANBgkqhkiG9w0BAQsFADBPMQswCQYDVQQGEwJVUzET
MBEGA1UECAwKQ2FsaWZvcm5pYTERMA8GA1UECgwITTJDcnlwdG8xGDAWBgNVBAMM
D0hlaWtraSBUb2l2b25lbjAeFw0yNTExMTIxOTE0NThaFw0zNTExMTAxOTE0NTha
MGkxCzAJBgNVBAYTAlVTMRMwEQYDVQQIDApDYWxpZm9ybmlhMREwDwYDVQQKDAhN
MkNyeXB0bzEPMA0GA1UEAwwGU2lnbmVyMSEwHwYJKoZIhvcNAQkBFhJzaWduZXJA
ZXhhbXBsZS5jb20wggEiMA0GCSqGSIb3DQEBAQUAA4IBDwAwggEKAoIBAQDkXrbK
iYocXNZQXccooSZ/5JO9MgeOPdmQCdeMWBWK+uLjtAMWbs16ZzESUmJcjYMWaV0K
21KEmZwAMH1gn4H0j6BOd+xD3DFDQVAEGGs/hETEfbJdJaDfbzKH5zkOJ9E7Yx/J
Cd9N2hQ4zW4NlSbjHOCEyXsAjrMMFS881QFpGjoILwY6FLdOW6VkZd8SXBuqNvnF
nVMCUy0umSglXhBI3qLGXgg715m0+ZpAj7hlNCzI/GcJY7Ic1V+o7LDlXNWjn5Zt
T88NBaSUcvN65jzEjCWaj61wz+CyPwHUT5mEXsfO4M4PSzRP4GNdgBkKK78ZKL6F
R4cMg5ZFaZvaFbtrAgMBAAGjLDAqMAkGA1UdEwQCMAAwHQYDVR0OBBYEFKQIXvY0
u7LhpTnIjMXL1lmBzwl3MA0GCSqGSIb3DQEBCwUAA4IBAQBXyZPw675W2pult9MP
5Pt3RQ9GMO4HrOvzXCwV3S07LOyc3h56wYoNzfIezUdCJeV7apaV5Zz3833z12lS
MGdfCL8maiLsWCa2XYIz1joDzp1iwwj8UEBWo8j5tYR2GdWvi6bst6kjsmMTt1VI
AeXdk1KQ03XELT4JaAiLlwqNqJtm8/lm9XyQg2+8HAcYAI3ddcsFdBESyBoSJQF6
Vxmf7cIVPV85Wc9DjNBfpzpeopK34a5FG2/EvR7MEDbWxb6N6sUHwkWhA+2KkiIQ
wpW3UOgrSYN8hLx8wmxx36MdzQt/13OUChKp+brxucSfsR2dEauCc1DN0R0lz3CR
Z9F2
-----END CERTIFICATE-----
