Certificate:
    Data:
        Version: 3 (0x2)
        Serial Number: 2 (0x2)
        Signature Algorithm: sha256WithRSAEncryption
        Issuer: C=US, ST=California, O=M2Crypto, CN=Heikki Toivonen
        Validity
            Not Before: Nov 12 19:14:58 2025 GMT
            Not After : Nov 10 19:14:58 2035 GMT
        Subject: C=US, ST=California, O=M2Crypto, CN=X509
        Subject Public Key Info:
            Public Key Algorithm: rsaEncryption
                RSA Public-Key: (2048 bit)
                Modulus:
                    00:94:43:18:dc:ba:2e:00:34:20:3f:62:29:8f:58:
                    d8:3a:2a:80:55:ac:80:fe:76:3e:d6:79:28:0f:1a:
                    1f:89:f1:74:e4:f9:2c:ae:ef:01:eb:80:85:7c:6d:
                    4a:73:ca:df:d4:8d:cd:e9:c9:2a:01:6c:37:13:48:
                    97:88:09:90:45:0c:a0:15:28:b7:49:83:ab:ac:0c:
                    b4:35:28:f5:b3:11:62:76:a5:fa:95:29:ce:a1:b5:
                    78:4e:23:b3:cc:0c:e6:eb:de:36:49:01:c0:b8:6d:
                    79:7f:32:f0:4b:fa:cc:4a:dc:81:f0:09:a6:5b:a7:
                    15:35:69:8c:ba:4e:c5:ad:8d:ed:37:b4:12:38:2e:
                    ea:8d:79:6e:15:1f:f0:6f:72:9d:90:b4:07:b6:8d:
                    ab:c5:b8:79:65:b4:6a:10:d3:43:bf:db:a3:2b:2b:
                    ea:d3:d9:8b:cf:13:0f:fb:08:26:4d:ec:f5:e8:da:
                    b0:73:2e:91:eb:34:80:f2:aa:6e:24:78:2e:64:ab:
                    95:b5:5e:01:3e:49:ce:6e:75:34:33:c4:5c:7d:d2:
                    f7:57:e8:f3:57:09:f5:2d:6a:4a:09:14:43:b9:a8:
                    9e:50:b2:e5:76:46:e5:44:04:c3:01:8b:f9:aa:8c:
                    d1:32:1f:27:79:d5:2c:51:b0:0a:7a:78:27:7c:9d:
                    a7:97
                Exponent: 65537 (0x10001)
        X509v3 extensions:
            X509v3 Basic Constraints: 
                CA:FALSE
            X509v3 Subject Key Identifier: 
                67:8E:56:98:28:43:45:75:23:0F:C6:0B:24:59:6E:E2:86:3F:20:D7
    Signature Algorithm: sha256WithRSAEncryption
    Signature Value:
        6b:11:79:dd:b8:12:e8:da:d9:10:4b:7b:f6:03:55:1d:22:c8:
        c2:4e:52:f3:ff:35:9f:6f:32:5c:b2:ca:43:02:99:1f:cf:b4:
        9c:81:ae:89:1c:1b:39:c9:a2:fb:c0:f7:a4:a7:99:d5:c8:ce:
        74:48:d1:1b:98:b2:48:9f:5c:3c:3f:bb:c3:68:fb:99:63:0e:
        97:66:bc:68:76:62:54:70:41:78:24:07:d6:8a:a7:0d:bc:66:
        f9:85:5d:cf:93:58:28:e2:91:31:33:c0:17:b1:bb:76:6e:b6:
        a3:b4:32:9c:bf:6f:63:bc:eb:23:40:2c:98:e4:38:b9:ef:17:
        b7:b4:9c:25:b7:c4:4d:14:02:bd:6a:a4:a1:82:4b:53:6a:79:
        b7:02:40:ec:10:ff:1f:81:83:d1:3a:b0:9e:33:db:54:64:10:
        6f:18:20:1c:e9:e1:15:e2:a3:d5:76:12:a1:87:a8:5f:e3:41:
        df:66:51:fb:21:d1:e7:45:3a:5a:c4:58:5c:ae:e9:c4:ca:21:
        68:a1:df:15:53:a7:d7:97:54:a9:43:c3:2e:3c:cd:bf:93:2f:
        5c:78:0e:78:91:93:b2:7c:3f:3a:63:7b:1a:ae:2a:3b:ea:41:
        eb:f0:86:fd:39:36:3c:d4:15:e0:25:9e:f9:54:ca:16:34:f6:
        07:ac:d1:b8
-----BEGIN CERTIFICATE-----
MIIDOjCCAiKgAwIBAgIBAjANBgkqhkiG9w0BAQsFADBPMQswCQYDVQQGEwJVUzET
MBEGA1UECAwKQ2FsaWZvcm5pYTERMA8GA1UECgwITTJDcnlwdG8xGDAWBgNVBAMM
D0hlaWtraSBUb2l2b25lbjAeFw0yNTExMTIxOTE0NThaFw0zNTExMTAxOTE0NTha
MEQxCzAJBgNVBAYTAlVTMRMwEQYDVQQIDApDYWxpZm9ybmlhMREwDwYDVQQKDAhN
MkNyeXB0bzENMAsGA1UEAwwEWDUwOTCCASIwDQYJKoZIhvcNAQEBBQADggEPADCC
AQoCggEBAJRDGNy6LgA0ID9iKY9Y2DoqgFWsgP52PtZ5KA8aH4nxdOT5LK7vAeuA
hXxtSnPK39SNzenJKgFsNxNIl4gJkEUMoBUot0mDq6wMtDUo9bMRYnal+pUpzqG1
eE4js8wM5uveNkkBwLhteX8y8Ev6zErcgfAJplunFTVpjLpOxa2N7Te0Ejgu6o15
bhUf8G9ynZC0B7aNq8W4eWW0ahDTQ7/boysr6tPZi88TD/sIJk3s9ejasHMukes0
gPKqbiR4LmSrlbVeAT5Jzm51NDPEXH3S91fo81cJ9S1qSgkUQ7monlCy5XZG5UQE
wwGL+aqM0TIfJ3nVLFGwCnp4J3ydp5cCAwEAAaMsMCowCQYDVR0TBAIwADAdBgNV
HQ4EFgQUZ45WmChDRXUjD8YLJFlu4oY/INcwDQYJKoZIhvcNAQELBQADggEBAGsR
ed24Euja2RBLe/YDVR0iyMJOUvP/NZ9vMlyyykMCmR/PtJyBrokcGznJovvA96Sn
mdXIznRI0RuYskifXDw/u8No+5ljDpdmvGh2YlRwQXgkB9aKpw28ZvmFXc+TWCji
kTEzwBexu3ZutqO0Mpy/b2O86yNALJjkOLnvF7e0nCW3xE0UAr1qpKGCS1NqebcC
QOwQ/x+Bg9E6sJ4z21RkEG8YIBzp4RXio9V2EqGHqF/jQd9mUfsh0edFOlrEWFyu
6cTKIWih3xVTp9eXVKlDwy48zb+TL1x4DniRk7J8PzpjexquKjvqQevwhv05NjzU
FeAlnvlUyhY09ges0bg=
-----END CERTIFICATE-----
-----BEGIN RSA PRIVATE KEY-----
MIIEogIBAAKCAQEAlEMY3LouADQgP2Ipj1jYOiqAVayA/nY+1nkoDxofifF05Pks
ru8B64CFfG1Kc8rf1I3N6ckqAWw3E0iXiAmQRQygFSi3SYOrrAy0NSj1sxFidqX6
lSnOobV4TiOzzAzm6942SQHAuG15fzLwS/rMStyB8AmmW6cVNWmMuk7FrY3tN7QS
OC7qjXluFR/wb3KdkLQHto2rxbh5ZbRqENNDv9ujKyvq09mLzxMP+wgmTez16Nqw
cy6R6zSA8qpuJHguZKuVtV4BPknObnU0M8RcfdL3V+jzVwn1LWpKCRRDuaieULLl
dkblRATDAYv5qozRMh8nedUsUbAKengnfJ2nlwIDAQABAoIBAArdUdyW7hkIuNY8
OMRu48V7aNUeY4OCIb+wuC1HIkmG/qRq2AnnrNHXpLCGB78tfjKCw7Sej6v0BKMu
niATZ1WQA8kZJzlFY1ajxa7hlgOtwfPk3NSCcEhsVmkPd7T7uw5MxdiavsclCpK2
JmLC+aaAuyreYij0OPslhXD/pb++eqyVjI03CHmymLGQRZvd69Q27/wsioBUxYFk
x2GJ9XV2ZmZ/SRMWd5LjqJoGM+8TEnXsys4TigipnEzL2kPnRubQSaZeeC8IgQBK
TVf/5nTpiSJJzEaIIuFPv+fG2btAcxzDoZZEj826Z0ElZWlSo04WOZ5X5KAFd+Ov
z0YG6E0CgYEAzUhgH2agD8ptI8YvtkAwlYl0fzfJqoQ30jd6SrY/LA3MsmKgCU4R
MF1ZWEO6nPFC037yjft59YZqKgYYh85QuEZYAaP8NIhuWw0HQK/HiAzeELLDP88h
JEtQXyXEB3MRzljgBSumzmgADdQxlRfWI2yKieO7rDGnb8of4Rl5JQMCgYEAuORO
9QsYzJjTf70Yn6vHNHOGNKqOBg9oTRXZ6v2mFVPf/FRbZUz7vDOV3sCrHeIWjluN
2XIrh57VG/kdgPZcnhDvytS9lsqpvc5est3SNuFFmmafm5RBHw8BF5wjCCoB9ryI
8wHUI2yScrqoe4JtFWmZpFo8oWtE+kHpZsd0PN0CgYAK3BhRsPEoxLGvYc2mW5D2
aDYkgMQHZEU7trmeeDOxVe2NRlBnDZ01LMsMM1EM+mppm96jCjmydnDpVjc3//8f
MIF5XL573PfRk0fd8S6iEOQyh/JyTrfXHrDax7muFzVK8EKxo1SIuNG/6YjR9Vfb
ueM+VjDYdCwCavPyyZEyFwKBgFcAoCLw+Nd15rhKTCb+lzuYTQPFahVx9Jupd6T7
fMa2dETxkRxnEGIsSA7MzPi/5etRK7ux3Mfxtsh1/issQsLip2Pjnd8yOJOnY6p5
dSz77lvMhLiaF9a8ob/xag6ybcAkUbFAIAoXUgaIzTVpV1lnGrRa/gLbTlcQ4vrJ
SmpFAoGATXlCVZ3s5VHfgPS4v0F1C3b3k3oSJO5bKq69zX/baNedSFOKXyL6ZRMy
lBooQFruK832HfOevKATV2OTK4E049L+5B6XZNtvTizYjYOEZ3qC9NCY+pHDshL+
ByEDvTNNx+Ec4wRsngFEkptgJOFa0VWgo0WWlsnJl8z9u1ZGmp0=
-----END RSA PRIVATE KEY-----
